; Function Attrs: nounwind uwtable
define noalias nonnull ptr @l_Lean_Server_References_definitionOf_x3f___lambda__1___boxed(ptr noundef %0, ptr noundef %1, ptr noundef %2) local_unnamed_addr #0 {
  tail call void @lean_inc_heartbeat() #8
  %4 = tail call noalias ptr @mi_malloc_small(i64 noundef 24) #8
  %5 = icmp eq ptr %4, null
  br i1 %5, label %6, label %l_Lean_Server_References_definitionOf_x3f___lambda__1.exit

6:                                                ; preds = %3
  tail call void @lean_internal_panic_out_of_memory() #9
  unreachable

l_Lean_Server_References_definitionOf_x3f___lambda__1.exit: ; preds = %3
  %7 = getelementptr inbounds nuw i8, ptr %4, i64 4
  store i32 1, ptr %4, align 4, !tbaa !8
  store i32 131096, ptr %7, align 4
  %8 = getelementptr inbounds nuw i8, ptr %4, i64 8
  store ptr %0, ptr %8, align 8, !tbaa !4
  %9 = getelementptr inbounds nuw i8, ptr %4, i64 16
  store ptr %2, ptr %9, align 8, !tbaa !4
  %10 = ptrtoint ptr %1 to i64
  %11 = and i64 %10, 1
  %.not = icmp eq i64 %11, 0
  br i1 %.not, label %12, label %lean_dec.exit

12:                                               ; preds = %l_Lean_Server_References_definitionOf_x3f___lambda__1.exit
  %13 = load i32, ptr %1, align 4, !tbaa !8
  %14 = icmp sgt i32 %13, 1
  br i1 %14, label %15, label %17, !prof !11

15:                                               ; preds = %12
  %16 = add nsw i32 %13, -1
  store i32 %16, ptr %1, align 4, !tbaa !8
  br label %lean_dec.exit

17:                                               ; preds = %12
  %.not.i = icmp eq i32 %13, 0
  br i1 %.not.i, label %lean_dec.exit, label %18

18:                                               ; preds = %17
  tail call void @lean_dec_ref_cold(ptr noundef nonnull %1) #8
  br label %lean_dec.exit

lean_dec.exit:                                    ; preds = %18, %17, %15, %l_Lean_Server_References_definitionOf_x3f___lambda__1.exit
  ret ptr %4
}